target datalayout = "e-m:e-p270:32:32-p271:32:32-p272:64:64-i64:64-i128:128-f80:128-n8:16:32:64-S128"
target triple = "x86_64-pc-linux-gnu"

%struct.AVChannelLayout = type { i32, i32, %union.anon.0, ptr }
%union.anon.0 = type { i64 }
%struct.AVCodecContext = type { ptr, i32, i32, ptr, i32, i32, ptr, ptr, ptr, i64, i32, i32, ptr, i32, %struct.AVRational, %struct.AVRational, %struct.AVRational, i32, i32, i32, i32, i32, %struct.AVRational, i32, i32, i32, i32, i32, i32, i32, i32, i32, i32, i32, ptr, ptr, i32, float, float, float, float, float, float, float, float, float, i32, i32, i32, i32, i32, i32, i32, i32, i32, i32, i32, i32, ptr, ptr, ptr, i32, i32, i32, i32, i32, i32, i32, i32, i32, i32, %struct.AVChannelLayout, i32, i32, i32, i32, i32, i32, i32, i32, ptr, i32, i32, i32, float, float, i32, i32, i32, i32, i32, ptr, i64, i64, float, float, i32, i32, ptr, ptr, i32, i32, i32, i32, i32, ptr, ptr, ptr, ptr, i32, i32, [8 x i64], i32, i32, i32, i32, i32, i32, i32, ptr, ptr, i32, i32, i32, i32, i32, i32, i32, i32, i32, i32, ptr, ptr, i32, i32, ptr, ptr, ptr, ptr, i32, i32, i64, i32, i32, i64, ptr, i64, ptr, i32, ptr, i32 }
%struct.AVRational = type { i32, i32 }
%struct.On2AVCContext = type { ptr, ptr, ptr, ptr, ptr, ptr, ptr, ptr, ptr, ptr, ptr, ptr, ptr, ptr, ptr, ptr, ptr, i32, ptr, i32, i32, i32, i32, i32, ptr, [8 x i32], i32, [112 x i32], i32, [112 x i8], [112 x i8], i32, [112 x float], %struct.VLC, [16 x %struct.VLC], [128 x float], [2 x [1024 x float]], [2 x [1024 x float]], [2048 x float], [1024 x float], [1024 x float], [128 x float] }
%struct.VLC = type { i32, ptr, i32, i32 }
%struct.GetByteContext = type { ptr, ptr, ptr }
%struct.AVPacket = type { ptr, i64, i64, ptr, i32, i32, i32, ptr, i32, i64, i64, ptr, ptr, %struct.AVRational }
%struct.AVFrame = type { [8 x ptr], [8 x i32], ptr, i32, i32, i32, i32, i32, %struct.AVRational, i64, i64, %struct.AVRational, i32, ptr, i32, i32, [8 x ptr], ptr, i32, ptr, i32, i32, i32, i32, i32, i32, i32, i64, ptr, i32, ptr, ptr, i64, i64, i64, i64, ptr, %struct.AVChannelLayout, i64 }

@.str.5 = private unnamed_addr constant [26 x i8] c"Invalid subframe size %d\0A\00", align 1
@.str.6 = private unnamed_addr constant [22 x i8] c"No subframes present\0A\00", align 1
@.str.11 = private unnamed_addr constant [30 x i8] c"Assertion %s failed at %s:%d\0A\00", align 1
@.str.12 = private unnamed_addr constant [14 x i8] c"buf_size >= 0\00", align 1
@.str.13 = private unnamed_addr constant [24 x i8] c"libavcodec/bytestream.h\00", align 1

; Function Attrs: alwaysinline nounwind uwtable
define internal i32 @bytestream_get_le16(ptr noundef %0) #5 {
  %2 = alloca ptr, align 8
  store ptr %0, ptr %2, align 8, !tbaa !164
  %3 = load ptr, ptr %2, align 8, !tbaa !164
  %4 = load ptr, ptr %3, align 8, !tbaa !31
  %5 = getelementptr inbounds i8, ptr %4, i64 2
  store ptr %5, ptr %3, align 8, !tbaa !31
  %6 = load ptr, ptr %2, align 8, !tbaa !164
  %7 = load ptr, ptr %6, align 8, !tbaa !31
  %8 = getelementptr inbounds i8, ptr %7, i64 -2
  %9 = load i16, ptr %8, align 1, !tbaa !45
  %10 = zext i16 %9 to i32
  ret i32 %10
}

; Function Attrs: alwaysinline nounwind uwtable
define internal i32 @bytestream2_get_le16u(ptr noundef %0) #5 {
  %2 = alloca ptr, align 8
  store ptr %0, ptr %2, align 8, !tbaa !119
  %3 = load ptr, ptr %2, align 8, !tbaa !119
  %4 = getelementptr inbounds nuw %struct.GetByteContext, ptr %3, i32 0, i32 0
  %5 = call i32 @bytestream_get_le16(ptr noundef %4)
  ret i32 %5
}

; Function Attrs: alwaysinline nounwind uwtable
define internal void @bytestream2_skip(ptr noundef %0, i32 noundef %1) #5 {
  %3 = alloca ptr, align 8
  %4 = alloca i32, align 4
  store ptr %0, ptr %3, align 8, !tbaa !119
  store i32 %1, ptr %4, align 4, !tbaa !34
  %5 = load ptr, ptr %3, align 8, !tbaa !119
  %6 = getelementptr inbounds nuw %struct.GetByteContext, ptr %5, i32 0, i32 1
  %7 = load ptr, ptr %6, align 8, !tbaa !122
  %8 = load ptr, ptr %3, align 8, !tbaa !119
  %9 = getelementptr inbounds nuw %struct.GetByteContext, ptr %8, i32 0, i32 0
  %10 = load ptr, ptr %9, align 8, !tbaa !75
  %11 = ptrtoint ptr %7 to i64
  %12 = ptrtoint ptr %10 to i64
  %13 = sub i64 %11, %12
  %14 = load i32, ptr %4, align 4, !tbaa !34
  %15 = zext i32 %14 to i64
  %16 = icmp sgt i64 %13, %15
  br i1 %16, label %17, label %20

17:                                               ; preds = %2
  %18 = load i32, ptr %4, align 4, !tbaa !34
  %19 = zext i32 %18 to i64
  br label %30

20:                                               ; preds = %2
  %21 = load ptr, ptr %3, align 8, !tbaa !119
  %22 = getelementptr inbounds nuw %struct.GetByteContext, ptr %21, i32 0, i32 1
  %23 = load ptr, ptr %22, align 8, !tbaa !122
  %24 = load ptr, ptr %3, align 8, !tbaa !119
  %25 = getelementptr inbounds nuw %struct.GetByteContext, ptr %24, i32 0, i32 0
  %26 = load ptr, ptr %25, align 8, !tbaa !75
  %27 = ptrtoint ptr %23 to i64
  %28 = ptrtoint ptr %26 to i64
  %29 = sub i64 %27, %28
  br label %30

30:                                               ; preds = %20, %17
  %31 = phi i64 [ %19, %17 ], [ %29, %20 ]
  %32 = load ptr, ptr %3, align 8, !tbaa !119
  %33 = getelementptr inbounds nuw %struct.GetByteContext, ptr %32, i32 0, i32 0
  %34 = load ptr, ptr %33, align 8, !tbaa !75
  %35 = getelementptr inbounds i8, ptr %34, i64 %31
  store ptr %35, ptr %33, align 8, !tbaa !75
  ret void
}

; Function Attrs: alwaysinline nounwind uwtable
define internal i32 @bytestream2_get_le16(ptr noundef %0) #5 {
  %2 = alloca i32, align 4
  %3 = alloca ptr, align 8
  store ptr %0, ptr %3, align 8, !tbaa !119
  %4 = load ptr, ptr %3, align 8, !tbaa !119
  %5 = getelementptr inbounds nuw %struct.GetByteContext, ptr %4, i32 0, i32 1
  %6 = load ptr, ptr %5, align 8, !tbaa !122
  %7 = load ptr, ptr %3, align 8, !tbaa !119
  %8 = getelementptr inbounds nuw %struct.GetByteContext, ptr %7, i32 0, i32 0
  %9 = load ptr, ptr %8, align 8, !tbaa !75
  %10 = ptrtoint ptr %6 to i64
  %11 = ptrtoint ptr %9 to i64
  %12 = sub i64 %10, %11
  %13 = icmp slt i64 %12, 2
  br i1 %13, label %14, label %20

14:                                               ; preds = %1
  %15 = load ptr, ptr %3, align 8, !tbaa !119
  %16 = getelementptr inbounds nuw %struct.GetByteContext, ptr %15, i32 0, i32 1
  %17 = load ptr, ptr %16, align 8, !tbaa !122
  %18 = load ptr, ptr %3, align 8, !tbaa !119
  %19 = getelementptr inbounds nuw %struct.GetByteContext, ptr %18, i32 0, i32 0
  store ptr %17, ptr %19, align 8, !tbaa !75
  store i32 0, ptr %2, align 4
  br label %23

20:                                               ; preds = %1
  %21 = load ptr, ptr %3, align 8, !tbaa !119
  %22 = call i32 @bytestream2_get_le16u(ptr noundef %21)
  store i32 %22, ptr %2, align 4
  br label %23

23:                                               ; preds = %20, %14
  %24 = load i32, ptr %2, align 4
  ret i32 %24
}

; Function Attrs: alwaysinline nounwind uwtable
define internal i32 @bytestream2_get_bytes_left(ptr noundef %0) #5 {
  %2 = alloca ptr, align 8
  store ptr %0, ptr %2, align 8, !tbaa !119
  %3 = load ptr, ptr %2, align 8, !tbaa !119
  %4 = getelementptr inbounds nuw %struct.GetByteContext, ptr %3, i32 0, i32 1
  %5 = load ptr, ptr %4, align 8, !tbaa !122
  %6 = load ptr, ptr %2, align 8, !tbaa !119
  %7 = getelementptr inbounds nuw %struct.GetByteContext, ptr %6, i32 0, i32 0
  %8 = load ptr, ptr %7, align 8, !tbaa !75
  %9 = ptrtoint ptr %5 to i64
  %10 = ptrtoint ptr %8 to i64
  %11 = sub i64 %9, %10
  %12 = trunc i64 %11 to i32
  ret i32 %12
}

; Function Attrs: alwaysinline nounwind uwtable
define internal void @bytestream2_init(ptr noundef %0, ptr noundef %1, i32 noundef %2) #5 {
  %4 = alloca ptr, align 8
  %5 = alloca ptr, align 8
  %6 = alloca i32, align 4
  store ptr %0, ptr %4, align 8, !tbaa !119
  store ptr %1, ptr %5, align 8, !tbaa !31
  store i32 %2, ptr %6, align 4, !tbaa !34
  br label %7

7:                                                ; preds = %3
  %8 = load i32, ptr %6, align 4, !tbaa !34
  %9 = icmp sge i32 %8, 0
  br i1 %9, label %11, label %10

10:                                               ; preds = %7
  call void (ptr, i32, ptr, ...) @av_log(ptr noundef null, i32 noundef 0, ptr noundef @.str.11, ptr noundef @.str.12, ptr noundef @.str.13, i32 noundef 141)
  call void @abort() #14
  unreachable

11:                                               ; preds = %7
  br label %12

12:                                               ; preds = %11
  %13 = load ptr, ptr %5, align 8, !tbaa !31
  %14 = load ptr, ptr %4, align 8, !tbaa !119
  %15 = getelementptr inbounds nuw %struct.GetByteContext, ptr %14, i32 0, i32 0
  store ptr %13, ptr %15, align 8, !tbaa !75
  %16 = load ptr, ptr %5, align 8, !tbaa !31
  %17 = load ptr, ptr %4, align 8, !tbaa !119
  %18 = getelementptr inbounds nuw %struct.GetByteContext, ptr %17, i32 0, i32 2
  store ptr %16, ptr %18, align 8, !tbaa !121
  %19 = load ptr, ptr %5, align 8, !tbaa !31
  %20 = load i32, ptr %6, align 4, !tbaa !34
  %21 = sext i32 %20 to i64
  %22 = getelementptr inbounds i8, ptr %19, i64 %21
  %23 = load ptr, ptr %4, align 8, !tbaa !119
  %24 = getelementptr inbounds nuw %struct.GetByteContext, ptr %23, i32 0, i32 1
  store ptr %22, ptr %24, align 8, !tbaa !122
  ret void
}

; Function Attrs: nounwind uwtable
define internal i32 @on2avc_decode_frame(ptr noundef %0, ptr noundef %1, ptr noundef %2, ptr noundef %3) #1 {
  %5 = alloca i32, align 4
  %6 = alloca ptr, align 8
  %7 = alloca ptr, align 8
  %8 = alloca ptr, align 8
  %9 = alloca ptr, align 8
  %10 = alloca ptr, align 8
  %11 = alloca i32, align 4
  %12 = alloca ptr, align 8
  %13 = alloca %struct.GetByteContext, align 8
  %14 = alloca i32, align 4
  %15 = alloca i32, align 4
  %16 = alloca i32, align 4
  %17 = alloca i32, align 4
  %18 = alloca i32, align 4
  store ptr %0, ptr %6, align 8, !tbaa !4
  store ptr %1, ptr %7, align 8, !tbaa !61
  store ptr %2, ptr %8, align 8, !tbaa !63
  store ptr %3, ptr %9, align 8, !tbaa !64
  call void @llvm.lifetime.start.p0(i64 8, ptr %10) #12
  %19 = load ptr, ptr %9, align 8, !tbaa !64
  %20 = getelementptr inbounds nuw %struct.AVPacket, ptr %19, i32 0, i32 3
  %21 = load ptr, ptr %20, align 8, !tbaa !66
  store ptr %21, ptr %10, align 8, !tbaa !31
  call void @llvm.lifetime.start.p0(i64 4, ptr %11) #12
  %22 = load ptr, ptr %9, align 8, !tbaa !64
  %23 = getelementptr inbounds nuw %struct.AVPacket, ptr %22, i32 0, i32 4
  %24 = load i32, ptr %23, align 8, !tbaa !68
  store i32 %24, ptr %11, align 4, !tbaa !34
  call void @llvm.lifetime.start.p0(i64 8, ptr %12) #12
  %25 = load ptr, ptr %6, align 8, !tbaa !4
  %26 = getelementptr inbounds nuw %struct.AVCodecContext, ptr %25, i32 0, i32 6
  %27 = load ptr, ptr %26, align 8, !tbaa !9
  store ptr %27, ptr %12, align 8, !tbaa !29
  call void @llvm.lifetime.start.p0(i64 24, ptr %13) #12
  call void @llvm.lifetime.start.p0(i64 4, ptr %14) #12
  store i32 0, ptr %14, align 4, !tbaa !34
  call void @llvm.lifetime.start.p0(i64 4, ptr %15) #12
  call void @llvm.lifetime.start.p0(i64 4, ptr %16) #12
  call void @llvm.lifetime.start.p0(i64 4, ptr %17) #12
  %28 = load ptr, ptr %12, align 8, !tbaa !29
  %29 = getelementptr inbounds nuw %struct.On2AVCContext, ptr %28, i32 0, i32 17
  %30 = load i32, ptr %29, align 8, !tbaa !50
  %31 = icmp ne i32 %30, 0
  br i1 %31, label %32, label %51

32:                                               ; preds = %4
  %33 = load ptr, ptr %7, align 8, !tbaa !61
  %34 = getelementptr inbounds nuw %struct.AVFrame, ptr %33, i32 0, i32 5
  store i32 1024, ptr %34, align 8, !tbaa !69
  %35 = load ptr, ptr %6, align 8, !tbaa !4
  %36 = load ptr, ptr %7, align 8, !tbaa !61
  %37 = call i32 @ff_get_buffer(ptr noundef %35, ptr noundef %36, i32 noundef 0)
  store i32 %37, ptr %17, align 4, !tbaa !34
  %38 = icmp slt i32 %37, 0
  br i1 %38, label %39, label %41

39:                                               ; preds = %32
  %40 = load i32, ptr %17, align 4, !tbaa !34
  store i32 %40, ptr %5, align 4
  store i32 1, ptr %18, align 4
  br label %114

41:                                               ; preds = %32
  %42 = load ptr, ptr %12, align 8, !tbaa !29
  %43 = load ptr, ptr %10, align 8, !tbaa !31
  %44 = load i32, ptr %11, align 4, !tbaa !34
  %45 = load ptr, ptr %7, align 8, !tbaa !61
  %46 = call i32 @on2avc_decode_subframe(ptr noundef %42, ptr noundef %43, i32 noundef %44, ptr noundef %45, i32 noundef 0)
  store i32 %46, ptr %17, align 4, !tbaa !34
  %47 = icmp slt i32 %46, 0
  br i1 %47, label %48, label %50

48:                                               ; preds = %41
  %49 = load i32, ptr %17, align 4, !tbaa !34
  store i32 %49, ptr %5, align 4
  store i32 1, ptr %18, align 4
  br label %114

50:                                               ; preds = %41
  br label %111

51:                                               ; preds = %4
  %52 = load ptr, ptr %10, align 8, !tbaa !31
  %53 = load i32, ptr %11, align 4, !tbaa !34
  call void @bytestream2_init(ptr noundef %13, ptr noundef %52, i32 noundef %53)
  br label %54

54:                                               ; preds = %68, %51
  %55 = call i32 @bytestream2_get_bytes_left(ptr noundef %13)
  %56 = icmp sgt i32 %55, 2
  br i1 %56, label %57, label %72

57:                                               ; preds = %54
  %58 = call i32 @bytestream2_get_le16(ptr noundef %13)
  store i32 %58, ptr %15, align 4, !tbaa !34
  %59 = load i32, ptr %15, align 4, !tbaa !34
  %60 = icmp ne i32 %59, 0
  br i1 %60, label %61, label %65

61:                                               ; preds = %57
  %62 = load i32, ptr %15, align 4, !tbaa !34
  %63 = call i32 @bytestream2_get_bytes_left(ptr noundef %13)
  %64 = icmp sgt i32 %62, %63
  br i1 %64, label %65, label %68

65:                                               ; preds = %61, %57
  %66 = load ptr, ptr %6, align 8, !tbaa !4
  %67 = load i32, ptr %15, align 4, !tbaa !34
  call void (ptr, i32, ptr, ...) @av_log(ptr noundef %66, i32 noundef 16, ptr noundef @.str.5, i32 noundef %67)
  store i32 -1094995529, ptr %5, align 4
  store i32 1, ptr %18, align 4
  br label %114

68:                                               ; preds = %61
  %69 = load i32, ptr %14, align 4, !tbaa !34
  %70 = add nsw i32 %69, 1
  store i32 %70, ptr %14, align 4, !tbaa !34
  %71 = load i32, ptr %15, align 4, !tbaa !34
  call void @bytestream2_skip(ptr noundef %13, i32 noundef %71)
  br label %54, !llvm.loop !74

72:                                               ; preds = %54
  %73 = load i32, ptr %14, align 4, !tbaa !34
  %74 = icmp ne i32 %73, 0
  br i1 %74, label %77, label %75

75:                                               ; preds = %72
  %76 = load ptr, ptr %6, align 8, !tbaa !4
  call void (ptr, i32, ptr, ...) @av_log(ptr noundef %76, i32 noundef 16, ptr noundef @.str.6)
  store i32 -1094995529, ptr %5, align 4
  store i32 1, ptr %18, align 4
  br label %114

77:                                               ; preds = %72
  %78 = load i32, ptr %14, align 4, !tbaa !34
  %79 = mul nsw i32 1024, %78
  %80 = load ptr, ptr %7, align 8, !tbaa !61
  %81 = getelementptr inbounds nuw %struct.AVFrame, ptr %80, i32 0, i32 5
  store i32 %79, ptr %81, align 8, !tbaa !69
  %82 = load ptr, ptr %6, align 8, !tbaa !4
  %83 = load ptr, ptr %7, align 8, !tbaa !61
  %84 = call i32 @ff_get_buffer(ptr noundef %82, ptr noundef %83, i32 noundef 0)
  store i32 %84, ptr %17, align 4, !tbaa !34
  %85 = icmp slt i32 %84, 0
  br i1 %85, label %86, label %88

86:                                               ; preds = %77
  %87 = load i32, ptr %17, align 4, !tbaa !34
  store i32 %87, ptr %5, align 4
  store i32 1, ptr %18, align 4
  br label %114

88:                                               ; preds = %77
  store i32 0, ptr %16, align 4, !tbaa !34
  %89 = load ptr, ptr %10, align 8, !tbaa !31
  %90 = load i32, ptr %11, align 4, !tbaa !34
  call void @bytestream2_init(ptr noundef %13, ptr noundef %89, i32 noundef %90)
  br label %91

91:                                               ; preds = %106, %88
  %92 = call i32 @bytestream2_get_bytes_left(ptr noundef %13)
  %93 = icmp sgt i32 %92, 2
  br i1 %93, label %94, label %110

94:                                               ; preds = %91
  %95 = call i32 @bytestream2_get_le16(ptr noundef %13)
  store i32 %95, ptr %15, align 4, !tbaa !34
  %96 = load ptr, ptr %12, align 8, !tbaa !29
  %97 = getelementptr inbounds nuw %struct.GetByteContext, ptr %13, i32 0, i32 0
  %98 = load ptr, ptr %97, align 8, !tbaa !75
  %99 = load i32, ptr %15, align 4, !tbaa !34
  %100 = load ptr, ptr %7, align 8, !tbaa !61
  %101 = load i32, ptr %16, align 4, !tbaa !34
  %102 = call i32 @on2avc_decode_subframe(ptr noundef %96, ptr noundef %98, i32 noundef %99, ptr noundef %100, i32 noundef %101)
  store i32 %102, ptr %17, align 4, !tbaa !34
  %103 = icmp slt i32 %102, 0
  br i1 %103, label %104, label %106

104:                                              ; preds = %94
  %105 = load i32, ptr %17, align 4, !tbaa !34
  store i32 %105, ptr %5, align 4
  store i32 1, ptr %18, align 4
  br label %114

106:                                              ; preds = %94
  %107 = load i32, ptr %16, align 4, !tbaa !34
  %108 = add nsw i32 %107, 1024
  store i32 %108, ptr %16, align 4, !tbaa !34
  %109 = load i32, ptr %15, align 4, !tbaa !34
  call void @bytestream2_skip(ptr noundef %13, i32 noundef %109)
  br label %91, !llvm.loop !77

110:                                              ; preds = %91
  br label %111

111:                                              ; preds = %110, %50
  %112 = load ptr, ptr %8, align 8, !tbaa !63
  store i32 1, ptr %112, align 4, !tbaa !34
  %113 = load i32, ptr %11, align 4, !tbaa !34
  store i32 %113, ptr %5, align 4
  store i32 1, ptr %18, align 4
  br label %114

114:                                              ; preds = %111, %104, %86, %75, %65, %48, %39
  call void @llvm.lifetime.end.p0(i64 4, ptr %17) #12
  call void @llvm.lifetime.end.p0(i64 4, ptr %16) #12
  call void @llvm.lifetime.end.p0(i64 4, ptr %15) #12
  call void @llvm.lifetime.end.p0(i64 4, ptr %14) #12
  call void @llvm.lifetime.end.p0(i64 24, ptr %13) #12
  call void @llvm.lifetime.end.p0(i64 8, ptr %12) #12
  call void @llvm.lifetime.end.p0(i64 4, ptr %11) #12
  call void @llvm.lifetime.end.p0(i64 8, ptr %10) #12
  %115 = load i32, ptr %5, align 4
  ret i32 %115
}