; Function Attrs: nounwind uwtable
define internal i32 @on2avc_decode_frame(ptr noundef %0, ptr noundef %1, ptr noundef writeonly captures(none) %2, ptr noundef readonly captures(none) %3) #1 {
  %5 = getelementptr inbounds nuw i8, ptr %3, i64 24
  %6 = load ptr, ptr %5, align 8, !tbaa !52
  %7 = getelementptr inbounds nuw i8, ptr %3, i64 32
  %8 = load i32, ptr %7, align 8, !tbaa !54
  %9 = getelementptr inbounds nuw i8, ptr %0, i64 32
  %10 = load ptr, ptr %9, align 8, !tbaa !4
  %11 = getelementptr inbounds nuw i8, ptr %10, i64 136
  %12 = load i32, ptr %11, align 8, !tbaa !41
  %.not = icmp eq i32 %12, 0
  br i1 %.not, label %20, label %13

13:                                               ; preds = %4
  %14 = getelementptr inbounds nuw i8, ptr %1, i64 112
  store i32 1024, ptr %14, align 8, !tbaa !55
  %15 = tail call i32 @ff_get_buffer(ptr noundef nonnull %0, ptr noundef %1, i32 noundef 0) #11
  %16 = icmp slt i32 %15, 0
  br i1 %16, label %.loopexit73, label %17

17:                                               ; preds = %13
  %18 = tail call fastcc i32 @on2avc_decode_subframe(ptr noundef nonnull %10, ptr noundef %6, i32 noundef %8, ptr noundef nonnull %1, i32 noundef 0)
  %19 = icmp slt i32 %18, 0
  br i1 %19, label %.loopexit73, label %.loopexit

20:                                               ; preds = %4
  %21 = icmp sgt i32 %8, -1
  br i1 %21, label %bytestream2_init.exit, label %22

22:                                               ; preds = %20
  tail call void (ptr, i32, ptr, ...) @av_log(ptr noundef null, i32 noundef 0, ptr noundef nonnull @.str.11, ptr noundef nonnull @.str.12, ptr noundef nonnull @.str.13, i32 noundef 141) #11
  tail call void @abort() #12
  unreachable

bytestream2_init.exit:                            ; preds = %20
  %23 = zext nneg i32 %8 to i64
  %24 = getelementptr inbounds nuw i8, ptr %6, i64 %23
  %25 = ptrtoint ptr %24 to i64
  %26 = icmp samesign ugt i32 %8, 2
  br i1 %26, label %.lr.ph, label %45

.lr.ph:                                           ; preds = %bytestream2_init.exit, %37
  %27 = phi i64 [ %42, %37 ], [ %23, %bytestream2_init.exit ]
  %.03978 = phi i32 [ %38, %37 ], [ 0, %bytestream2_init.exit ]
  %.sroa.0.077 = phi ptr [ %40, %37 ], [ %6, %bytestream2_init.exit ]
  %28 = icmp slt i64 %27, 2
  br i1 %28, label %bytestream2_get_le16.exit.thread, label %bytestream2_get_le16.exit

bytestream2_get_le16.exit:                        ; preds = %.lr.ph
  %29 = getelementptr inbounds nuw i8, ptr %.sroa.0.077, i64 2
  %30 = load i16, ptr %.sroa.0.077, align 1, !tbaa !38
  %.not47 = icmp eq i16 %30, 0
  br i1 %.not47, label %bytestream2_get_le16.exit.thread, label %31

31:                                               ; preds = %bytestream2_get_le16.exit
  %32 = zext i16 %30 to i32
  %33 = ptrtoint ptr %29 to i64
  %34 = sub i64 %25, %33
  %35 = trunc i64 %34 to i32
  %36 = icmp sgt i32 %32, %35
  br i1 %36, label %bytestream2_get_le16.exit.thread, label %37

bytestream2_get_le16.exit.thread:                 ; preds = %.lr.ph, %31, %bytestream2_get_le16.exit
  %.0.i72 = phi i32 [ %32, %31 ], [ 0, %bytestream2_get_le16.exit ], [ 0, %.lr.ph ]
  tail call void (ptr, i32, ptr, ...) @av_log(ptr noundef %0, i32 noundef 16, ptr noundef nonnull @.str.5, i32 noundef %.0.i72) #11
  br label %.loopexit73

37:                                               ; preds = %31
  %38 = add nuw nsw i32 %.03978, 1
  %39 = zext i16 %30 to i64
  %..i = tail call i64 @llvm.smin.i64(i64 %34, i64 %39)
  %40 = getelementptr inbounds i8, ptr %29, i64 %..i
  %41 = ptrtoint ptr %40 to i64
  %42 = sub i64 %25, %41
  %43 = trunc i64 %42 to i32
  %44 = icmp sgt i32 %43, 2
  br i1 %44, label %.lr.ph, label %._crit_edge, !llvm.loop !60

45:                                               ; preds = %bytestream2_init.exit
  tail call void (ptr, i32, ptr, ...) @av_log(ptr noundef nonnull %0, i32 noundef 16, ptr noundef nonnull @.str.6) #11
  br label %.loopexit73

._crit_edge:                                      ; preds = %37
  %46 = shl nsw i32 %38, 10
  %47 = getelementptr inbounds nuw i8, ptr %1, i64 112
  store i32 %46, ptr %47, align 8, !tbaa !55
  %48 = tail call i32 @ff_get_buffer(ptr noundef %0, ptr noundef %1, i32 noundef 0) #11
  %49 = icmp slt i32 %48, 0
  br i1 %49, label %.loopexit73, label %.lr.ph82

.lr.ph82:                                         ; preds = %._crit_edge, %bytestream2_init.exit48
  %50 = phi i64 [ %64, %bytestream2_init.exit48 ], [ %23, %._crit_edge ]
  %.081 = phi i32 [ %58, %bytestream2_init.exit48 ], [ 0, %._crit_edge ]
  %.sroa.0.180 = phi ptr [ %62, %bytestream2_init.exit48 ], [ %6, %._crit_edge ]
  %51 = icmp slt i64 %50, 2
  br i1 %51, label %bytestream2_get_le16.exit50, label %52

52:                                               ; preds = %.lr.ph82
  %53 = getelementptr inbounds nuw i8, ptr %.sroa.0.180, i64 2
  %54 = load i16, ptr %.sroa.0.180, align 1, !tbaa !38
  %55 = zext i16 %54 to i32
  br label %bytestream2_get_le16.exit50

bytestream2_get_le16.exit50:                      ; preds = %.lr.ph82, %52
  %.sroa.0.3 = phi ptr [ %53, %52 ], [ %24, %.lr.ph82 ]
  %.0.i49 = phi i32 [ %55, %52 ], [ 0, %.lr.ph82 ]
  %56 = tail call fastcc i32 @on2avc_decode_subframe(ptr noundef %10, ptr noundef %.sroa.0.3, i32 noundef %.0.i49, ptr noundef %1, i32 noundef %.081)
  %57 = icmp slt i32 %56, 0
  br i1 %57, label %.loopexit73, label %bytestream2_init.exit48

bytestream2_init.exit48:                          ; preds = %bytestream2_get_le16.exit50
  %58 = add nuw nsw i32 %.081, 1024
  %59 = ptrtoint ptr %.sroa.0.3 to i64
  %60 = sub i64 %25, %59
  %61 = zext nneg i32 %.0.i49 to i64
  %..i51 = tail call i64 @llvm.smin.i64(i64 %60, i64 %61)
  %62 = getelementptr inbounds i8, ptr %.sroa.0.3, i64 %..i51
  %63 = ptrtoint ptr %62 to i64
  %64 = sub i64 %25, %63
  %65 = trunc i64 %64 to i32
  %66 = icmp sgt i32 %65, 2
  br i1 %66, label %.lr.ph82, label %.loopexit, !llvm.loop !61

.loopexit:                                        ; preds = %bytestream2_init.exit48, %17
  store i32 1, ptr %2, align 4, !tbaa !37
  br label %.loopexit73

.loopexit73:                                      ; preds = %bytestream2_get_le16.exit50, %._crit_edge, %17, %13, %.loopexit, %45, %bytestream2_get_le16.exit.thread
  %.040 = phi i32 [ %8, %.loopexit ], [ -1094995529, %bytestream2_get_le16.exit.thread ], [ -1094995529, %45 ], [ %15, %13 ], [ %18, %17 ], [ %48, %._crit_edge ], [ %56, %bytestream2_get_le16.exit50 ]
  ret i32 %.040
}